target datalayout = "e-m:e-p270:32:32-p271:32:32-p272:64:64-i64:64-i128:128-f80:128-n8:16:32:64-S128"
target triple = "x86_64-pc-linux-gnu"

@.str.270 = private unnamed_addr constant [19 x i8] c"empty COPY message\00", align 1
@.str.271 = private unnamed_addr constant [46 x i8] c"malformed COPY message of type %d, length %zu\00", align 1

; Function Attrs: nounwind uwtable
define internal void @ReportCopyDataParseError(i64 noundef %0, ptr noundef %1) #0 {
  %3 = alloca i64, align 8
  %4 = alloca ptr, align 8
  store i64 %0, ptr %3, align 8
  store ptr %1, ptr %4, align 8
  %5 = load i64, ptr %3, align 8
  %6 = icmp eq i64 %5, 0
  br i1 %6, label %7, label %10

7:                                                ; preds = %2
  br label %8

8:                                                ; preds = %7
  call void (i32, i32, ptr, ...) @pg_log_generic(i32 noundef 4, i32 noundef 0, ptr noundef @.str.270)
  call void @exit(i32 noundef 1) #14
  unreachable

9:                                                ; No predecessors!
  br label %18

10:                                               ; preds = %2
  br label %11

11:                                               ; preds = %10
  %12 = load ptr, ptr %4, align 8
  %13 = getelementptr inbounds i8, ptr %12, i64 0
  %14 = load i8, ptr %13, align 1
  %15 = sext i8 %14 to i32
  %16 = load i64, ptr %3, align 8
  call void (i32, i32, ptr, ...) @pg_log_generic(i32 noundef 4, i32 noundef 0, ptr noundef @.str.271, i32 noundef %15, i64 noundef %16)
  call void @exit(i32 noundef 1) #14
  unreachable

17:                                               ; No predecessors!
  br label %18

18:                                               ; preds = %17, %9
  ret void
}