; Function Attrs: cold noreturn nounwind uwtable
define internal fastcc void @ReportCopyDataParseError(i64 noundef %0, ptr noundef readonly captures(none) %1) unnamed_addr #13 {
  %3 = icmp eq i64 %0, 0
  br i1 %3, label %4, label %5

4:                                                ; preds = %2
  tail call void (i32, i32, ptr, ...) @pg_log_generic(i32 noundef 4, i32 noundef 0, ptr noundef nonnull @.str.270) #17
  tail call void @exit(i32 noundef 1) #20
  unreachable

5:                                                ; preds = %2
  %6 = load i8, ptr %1, align 1
  %7 = sext i8 %6 to i32
  tail call void (i32, i32, ptr, ...) @pg_log_generic(i32 noundef 4, i32 noundef 0, ptr noundef nonnull @.str.271, i32 noundef %7, i64 noundef %0) #17
  tail call void @exit(i32 noundef 1) #20
  unreachable
}